(lp0
(lp1
S'my'
p2
aS'the'
p3
aS'person'
p4
aS'who'
p5
aS'inspires'
p6
aS'me'
p7
aS'me'
p8
aS'me'
p9
aS'um'
p10
aS'me'
p11
aS'the'
p12
aS'most'
p13
aS'is'
p14
aS'myself.'
p15
aS'i'
p16
aS'push'
p17
aS'myself'
p18
aS'to'
p19
aS'move'
p20
aS'forward.'
p21
aa(dp22
S'1'
p23
I0
sa(dp24
g23
I1
sa(dp25
g23
I1
sa(dp26
a(dp27
a(dp28
g23
I0
sa(dp29
S'<rps id="1"/><rpnsub id="1"/>'
p30
I1
sS'<f/>'
p31
I17
sS'<e/>'
p32
I1
sS'<rms id="1"/>'
p33
I1
sa(dp34
g10
I1
sa.